; Function Attrs: nounwind uwtable
define internal void @notify_job_time_cb(ptr readnone captures(none) %0, ptr readnone captures(none) %1, ptr noundef %2, ptr noundef readonly captures(none) %3, ptr readnone captures(none) %4, i32 %5, i32 %6, ptr readnone captures(none) %7) #0 {
  %9 = getelementptr inbounds nuw i8, ptr %3, i64 72
  %10 = load ptr, ptr %9, align 8
  %11 = getelementptr inbounds nuw i8, ptr %10, i64 80
  %12 = load ptr, ptr %11, align 8
  tail call void (ptr, ptr, ...) @proto_item_append_text(ptr noundef %2, ptr noundef nonnull @.str.757, ptr noundef %12) #5
  %.not = icmp eq ptr %2, null
  br i1 %.not, label %16, label %13

13:                                               ; preds = %8
  %14 = getelementptr inbounds nuw i8, ptr %2, i64 24
  %15 = load ptr, ptr %14, align 8
  tail call void (ptr, ptr, ...) @proto_item_append_text(ptr noundef %15, ptr noundef nonnull @.str.757, ptr noundef %12) #5
  br label %16

16:                                               ; preds = %13, %8
  ret void
}